(dp0
V447033375455342592
p1
VPutin Signs Law Officially Annexing Crimea: Russian President Vladimir Putin on Friday signed into... http://t.co/4DNaBVOmxh #arabspring
p2
sV447025579489902592
p3
VRT @jamesfraney: Thanks For Being So Cool About Everything: Onion op-ed 'by Vladimir Putin' #Ukraine #Crimea http://t.co/UKYucEnmk1 via @Th\u2026
p4
sV447082950052806656
p5
VTo get into mind of #Putin, here's a superb lecture from @LSEpublicevents - 'Putinism: The Ideology' http://t.co/COe2GbBYy2 #Crimea #Russia
p6
sV447108919727767552
p7
VRussia celebrates over Crimea while Ukraine looks West http://t.co/GMal1beFbA
p8
sV447046476338700289
p9
VAra Abramyan, head of Armenian diaspora, does his best in #Karabakh+#Armenia to let #Putin give him lands in #Crimea http://t.co/oN5JUND2MP
p10
sV447150457107279872
p11
VRT @JosephGMoran: To get into mind of #Putin, here's a superb lecture from @LSEpublicevents - 'Putinism: The Ideology' http://t.co/COe2GbBY\u2026
p12
sV447142989056720896
p13
VRT @EuranetPlus: \u201cEU is Putin\u2019s biggest sponsor\u201d - Green MEP @Claude_Turmes. More details at http://t.co/RFDjREPgoO\u000ahttps://t.co/zz7dmIJmBn\u2026
p14
sV447034938727362560
p15
VRT @revolution_info: Putin Signs Law Officially Annexing Crimea: Russian President Vladimir Putin on Friday signed into... http://t.co/4DNa\u2026
p16
sV447021320405270528
p17
VRT @viEUws: #EUtweets of the Week: Twitter @VivianeRedingEU hacked, Putin on #Crimea, #SRM and new #EUCO building | WATCH VIDEO: http://t.c\u2026
p18
sV446994729545523200
p19
VRT @PBaert1: #EUtweets of the Week: Twitter @VivianeRedingEU hacked, Putin on #Crimea, #SRM and new #EUCO building | WATCH VIDEO: http://t.\u2026
p20
sV446972239225700352
p21
VThanks For Being So Cool About Everything: Onion op-ed 'by Vladimir Putin' #Ukraine #Crimea http://t.co/UKYucEnmk1 via @TheOnion
p22
sV446992369762959360
p23
VRT @PBaert1: #EUtweets of the Week: Twitter @VivianeRedingEU hacked, Putin on #Crimea, #SRM and new #EUCO building | WATCH VIDEO: http://t.\u2026
p24
sV447137050051878912
p25
VBBC News - Ukraine: Putin signs Crimea annexation http://t.co/EioTuZbTUj
p26
sV446992537132466176
p27
VKyiv Signs EU Agreement As Putin Signs Crimea Annexation  http://t.co/9nh1AA2DGY
p28
sV446997180939649024
p29
V#Armenpress Crimea and Sevastopol officially join Russia as Putin signs final decree: Russia has fina... http://t.co/QEPx1h4rns #Armenia
p30
sV446978074660581376
p31
VPutin thanks the EU &amp; West for being "totally cool" about his taking over Crimea  #EUCO #takewhateveryouwant #Ukraine http://t.co/FbiQbeu4sb
p32
sV447143570957680640
p33
VRT @JosephGMoran: To get into mind of #Putin, here's a superb lecture from @LSEpublicevents - 'Putinism: The Ideology' http://t.co/COe2GbBY\u2026
p34
sV447117104299253760
p35
VRT @GeraldSantucci: Russia celebrates over Crimea while Ukraine looks West http://t.co/GMal1beFbA
p36
sV446971303464275968
p37
V#EUtweets of the Week: Twitter @VivianeRedingEU hacked, Putin on #Crimea, #SRM and new #EUCO building | WATCH VIDEO: http://t.co/nMYg4xFxC1
p38
sV447142813541490688
p39
VRT @JosephGMoran: To get into mind of #Putin, here's a superb lecture from @LSEpublicevents - 'Putinism: The Ideology' http://t.co/COe2GbBY\u2026
p40
s.