(dp0
V447096466788851712
p1
VRT @RashadNovruz: #Putin takes on a proposal by PM #Medvedev to demand $16 billion from #Ukraine; says it is yet not all the debt owed to #\u2026
p2
sV447096855034626048
p3
VRT @RashadNovruz: #Putin mocks #sanctions, instructs to deposit his salary in the sanction-listed Bank Russia to see if USA goes on offensi\u2026
p4
sV447108919727767552
p5
VRussia celebrates over Crimea while Ukraine looks West http://t.co/GMal1beFbA
p6
sV447089431129120768
p7
VRT @DamonMacWilson: Roberson: must remind Russians what Putin signed up to in NATO-Russia Council: Putin said was committed to intl law. #B\u2026
p8
sV447111306924285953
p9
VRT @hajduspox: My 6 yrs old when i try 2 explain him why daddy was away for so long at #euco : "how can this #Putin rule 2 countries at onc\u2026
p10
sV447150457107279872
p11
VRT @JosephGMoran: To get into mind of #Putin, here's a superb lecture from @LSEpublicevents - 'Putinism: The Ideology' http://t.co/COe2GbBY\u2026
p12
sV447142989056720896
p13
VRT @EuranetPlus: \u201cEU is Putin\u2019s biggest sponsor\u201d - Green MEP @Claude_Turmes. More details at http://t.co/RFDjREPgoO\u000ahttps://t.co/zz7dmIJmBn\u2026
p14
sV447105074654109696
p15
VThe Huffington Post: What Putin Wants. http://t.co/emlPlmG6Xc #Russia #Ukraine  #Putin
p16
sV447163007161090049
p17
VCan't I be sanctioned by Putin, too? - Washington Post (blog) http://t.co/M7vMsowqq2
p18
sV447106945951211520
p19
VV.Putin: We should continue cooperation on the helicopter project for Afghanistan http://t.co/0br0WMg1Ur
p20
sV447112283349860352
p21
VRT @hajduspox: My 6 yrs old when i try 2 explain him why daddy was away for so long at #euco : "how can this #Putin rule 2 countries at onc\u2026
p22
sV447137050051878912
p23
VBBC News - Ukraine: Putin signs Crimea annexation http://t.co/EioTuZbTUj
p24
sV447107014649741312
p25
VRT @natomission_ru: V.Putin: We should continue cooperation on the helicopter project for Afghanistan http://t.co/0br0WMg1Ur
p26
sV447181691375722496
p27
VWielding sanctions as scalpel, Obama aimed for Putin's inner circle: WASHINGTON, March 21 (Reuters) - U.S. san... http://t.co/julPMe1QSw
p28
sV447107249358798848
p29
VMy 6 yrs old when i try 2 explain him why daddy was away for so long at #euco : "how can this #Putin rule 2 countries at once?"
p30
sV447144667285831681
p31
VRT @ftbrussels: Putin bites where predecessors growled http://t.co/tZxGeUqV5G
p32
sV447143570957680640
p33
VRT @JosephGMoran: To get into mind of #Putin, here's a superb lecture from @LSEpublicevents - 'Putinism: The Ideology' http://t.co/COe2GbBY\u2026
p34
sV447117104299253760
p35
VRT @GeraldSantucci: Russia celebrates over Crimea while Ukraine looks West http://t.co/GMal1beFbA
p36
sV447120215613378561
p37
VRT @PStephe40: What Does Putin Want?  http://t.co/orpqXDVXte via @HuffPostPol
p38
sV447142813541490688
p39
VRT @JosephGMoran: To get into mind of #Putin, here's a superb lecture from @LSEpublicevents - 'Putinism: The Ideology' http://t.co/COe2GbBY\u2026
p40
s.