(dp0
V447162825862283264
p1
VRT @CrimeaEU: Mustafa Cemilev, leader of the Crimean Tatars &amp; Ukrainian MP declared "non grata" in #Crimea by Russian authorities. http://t\u2026
p2
sV447164996280401920
p3
VRT @CrimeaEU: Crimean leader &amp; Ukrainian MP Mustafa Cemilev's entry to #Crimea is restricted by the Russian authorities. http://t.co/QMjtLp\u2026
p4
sV447167358142935040
p5
VRT @CrimeaEU: Crimean leader &amp; Ukrainian MP Mustafa Cemilev's entry to #Crimea is restricted by the Russian authorities. http://t.co/QMjtLp\u2026
p6
sV447165206016184320
p7
VRT @CrimeaEU: Mustafa Cemilev, leader of the Crimean Tatars &amp; Ukrainian MP declared "non grata" in #Crimea by Russian authorities. http://t\u2026
p8
sV447179711920504832
p9
VRT @CrimeaEU: Mustafa Cemilev, leader of the Crimean Tatars &amp; Ukrainian MP declared "non grata" in #Crimea by Russian authorities. http://t\u2026
p10
sV447173583630901248
p11
VRT @CrimeaEU: Mustafa Cemilev, leader of the Crimean Tatars &amp; Ukrainian MP declared "non grata" in #Crimea by Russian authorities. http://t\u2026
p12
sV447169114880999424
p13
VEuropean Union prepares for trade war with Russia over Crimea - The Guardian: The GuardianEuropean Union prepa... http://t.co/iqOA0BTO6k
p14
sV447171060757442560
p15
VRT @DamonMacWilson: Ukraine, companies need to haul Russia into courts over Crimea. Get Moscow caught in massive legal web @economistmeg @g\u2026
p16
sV447174525210198016
p17
VRT @CrimeaEU: Mustafa Cemilev, leader of the Crimean Tatars &amp; Ukrainian MP declared "non grata" in #Crimea by Russian authorities. http://t\u2026
p18
sV447178260179582977
p19
VRT @CrimeaEU: Mustafa Cemilev, leader of the Crimean Tatars &amp; Ukrainian MP declared "non grata" in #Crimea by Russian authorities. http://t\u2026
p20
sV447160982456897536
p21
VRT @NATOpress: Why #Crimea isn't #Kosovo &amp; other myths debunked:https://t.co/t7jKsfx6mh via @carlbildt
p22
sV447168376054763520
p23
VRT @CrimeaEU: Crimean leader &amp; Ukrainian MP Mustafa Cemilev's entry to #Crimea is restricted by the Russian authorities. http://t.co/QMjtLp\u2026
p24
sV447166462223208448
p25
VRT @CrimeaEU: Crimean leader &amp; Ukrainian MP Mustafa Cemilev's entry to #Crimea is restricted by the Russian authorities. http://t.co/QMjtLp\u2026
p26
sV447179126160760832
p27
VRT @astroehlein: Matryoshka dolls as mysterious masked men in #Crimea - v @harkusha18 http://t.co/asQBnrdPiI
p28
sV447165437722513408
p29
VRT @CrimeaEU: Crimean leader &amp; Ukrainian MP Mustafa Cemilev's entry to #Crimea is restricted by the Russian authorities. http://t.co/QMjtLp\u2026
p30
sV447165695634456577
p31
VRT @CrimeaEU: Crimean leader &amp; Ukrainian MP Mustafa Cemilev's entry to #Crimea is restricted by the Russian authorities. http://t.co/QMjtLp\u2026
p32
sV447164727622651905
p33
VRT @CrimeaEU: Mustafa Cemilev, leader of the Crimean Tatars &amp; Ukrainian MP declared "non grata" in #Crimea by Russian authorities. http://t\u2026
p34
sV447180054037291008
p35
VRT @CrimeaEU: Mustafa Cemilev, leader of the Crimean Tatars &amp; Ukrainian MP declared "non grata" in #Crimea by Russian authorities. http://t\u2026
p36
sV447172085715304448
p37
VRT @CrimeaEU: Mustafa Cemilev, leader of the Crimean Tatars &amp; Ukrainian MP declared "non grata" in #Crimea by Russian authorities. http://t\u2026
p38
sV447170677238276096
p39
VRT @CrimeaEU: Mustafa Cemilev, leader of the Crimean Tatars &amp; Ukrainian MP declared "non grata" in #Crimea by Russian authorities. http://t\u2026
p40
s.