(dp0
V446974135370252288
p1
VRT @andersostlund: West needs to understand #Putin is a criminal and should be dealt w/ like one. #Russia #Ukraine #Crimea #EuroMaidan #USA\u2026
p2
sV446994110202003456
p3
VRT @andersostlund: Ok, bets are on: How long before #Putin is ousted or #Russia collapses? #Crimea #Ukraine
p4
sV446983148132655104
p5
VRT @andersostlund: West needs to understand #Putin is a criminal and should be dealt w/ like one. #Russia #Ukraine #Crimea #EuroMaidan #USA\u2026
p6
sV446915332725174272
p7
VRT @andersostlund: West needs to understand #Putin is a criminal and should be dealt w/ like one. #Russia #Ukraine #Crimea #EuroMaidan #USA\u2026
p8
sV446999581193412608
p9
VRT @andersostlund: Ok, bets are on: How long before #Putin is ousted or #Russia collapses? #Crimea #Ukraine
p10
sV446970609743167491
p11
VRT @andersostlund: West needs to understand #Putin is a criminal and should be dealt w/ like one. #Russia #Ukraine #Crimea #EuroMaidan #USA\u2026
p12
sV446982799720198144
p13
VRT @andersostlund: Ok, bets are on: How long before #Putin is ousted or #Russia collapses? #Crimea #Ukraine
p14
sV446921943401656320
p15
VRT @andersostlund: West needs to understand #Putin is a criminal and should be dealt w/ like one. #Russia #Ukraine #Crimea #EuroMaidan #USA\u2026
p16
sV447044315911847936
p17
V#EU sanctions over #Ukraine crisis hits inner circle of Russian government. #russiainvadesukraine #Crimea  #Kiev #Putin
p18
sV446987707911536640
p19
VRT @andersostlund: Ok, bets are on: How long before #Putin is ousted or #Russia collapses? #Crimea #Ukraine
p20
sV446941923396567041
p21
VRT @andersostlund: West needs to understand #Putin is a criminal and should be dealt w/ like one. #Russia #Ukraine #Crimea #EuroMaidan #USA\u2026
p22
sV446982118883987456
p23
VOk, bets are on: How long before #Putin is ousted or #Russia collapses? #Crimea #Ukraine
p24
sV446986593874628609
p25
VRT @andersostlund: Ok, bets are on: How long before #Putin is ousted or #Russia collapses? #Crimea #Ukraine
p26
sV446982580207091712
p27
VRT @andersostlund: Ok, bets are on: How long before #Putin is ousted or #Russia collapses? #Crimea #Ukraine
p28
sV446984651555749889
p29
VRT @andersostlund: Ok, bets are on: How long before #Putin is ousted or #Russia collapses? #Crimea #Ukraine
p30
sV446971476663869440
p31
VRT @andersostlund: West needs to understand #Putin is a criminal and should be dealt w/ like one. #Russia #Ukraine #Crimea #EuroMaidan #USA\u2026
p32
sV446914092478263296
p33
VRT @andersostlund: West needs to understand #Putin is a criminal and should be dealt w/ like one. #Russia #Ukraine #Crimea #EuroMaidan #USA\u2026
p34
sV447044761124634624
p35
VRT @Trocadhero: #EU sanctions over #Ukraine crisis hits inner circle of Russian government. #russiainvadesukraine #Crimea  #Kiev #Putin
p36
sV447052076317954048
p37
V#crimea #Crimea #Putin sometimes it's better to watch http://t.co/5DAgxTutUo
p38
sV446983214641344512
p39
VRT @andersostlund: Ok, bets are on: How long before #Putin is ousted or #Russia collapses? #Crimea #Ukraine
p40
s.