(dp0
V446219500715651072
p1
V"Surely goodness and mercy shall follow me all the days of my life: and I will dwell in the house of the LORD for ever."
p2
sV447496379255250944
p3
VOh my Goodness gracious. Some people talk like it's just 5 minutes to start of Apocalypse when i take off my glasses. Honesly? Fuck you.
p4
sV446013733123661825
p5
VI still think I'm unusally in love with someone so moody and bad. But full of goodness anyway and I just love him..
p6
sV445263955515416576
p7
V@elliegoulding Love ya! Goodness garcious! :3 in Love with this song! :)) http://t.co/NdzgjggYC1
p8
sV446385087001944064
p9
VMy goodness, new @iamsrk article is SOO long! would be reading it all night O_O thank you Shah Rukh
p10
sV446214281550659585
p11
VIf you're in a fairy tale and an older character gives you a seemingly obscure and unimportant warning, for goodness' sake please listen.
p12
s.