(dp0
V445935546708525057
p1
VGood gracious. #appreciatingtime http://t.co/O8KWvrCuSK
p2
sV447796231826194433
p3
VGracias Madre Review: Vegan Mexican Food in West Hollywood http://t.co/AvfYcPo2lO via @laweekly
p4
sV447496379255250944
p5
VOh my Goodness gracious. Some people talk like it's just 5 minutes to start of Apocalypse when i take off my glasses. Honesly? Fuck you.
p6
s.