(dp0
V447153869748183040
p1
V@MidAtlanticBias Oh- you mean the largest start-up in Russian history, right? Russia's taste-makers and social entrepreneurs?
p2
sV447137906734673920
p3
VRT @Mikaa_Polarisk: #ExxonMobil/#Rosneft's #Arctic E&amp;P to be impacted by US exec order allows targeting of key sectors of #Russia economy:e\u2026
p4
sV447157488203223040
p5
VWorld #Europe #US_News Russia\u2019s Aggression to Dominate Obama Europe Trip: The post Russia\u2019s Aggression to... http://t.co/3S8F00vF1r
p6
sV447135473899552768
p7
VRT @FearFactory75: \u201c@PWalkerRus: Want to thank everyone who sends us a photo of Paul. Thank you very much! https://t.co/a23kdAczkv http://t\u2026
p8
sV447153205630103556
p9
VMore sanctions from the EU and US? Russia shrugs. Kommersant/EN http://t.co/pxINuLk0kT
p10
sV447137367514963968
p11
VRussia agrees to international monitors in Ukraine (from @AP) http://t.co/8j2PArH3kP
p12
sV447140366563946496
p13
VRT @nicupopescu: 4 #russia banks excluded from visa/mastercard. More #russian banks affected
p14
sV447141065930600448
p15
VArun with a View: Putin and base instincts, by Svetlana Alexievich http://t.co/4B8l8qk0Li
p16
sV447140097277063168
p17
VRT @nicupopescu: 4 #russia banks excluded from visa/mastercard. More #russian banks affected
p18
sV447141135388250112
p19
VArun with a View: Poutine et les bas instincts, par Svetlana Alexievitch http://t.co/LDwL7ZOlC4
p20
sV447133749764177920
p21
V"Crimea shows the need for strategic changes" (Washington Post)  http://t.co/PMIBFKB8Bb
p22
sV447143186738475008
p23
V@SweetPanettiere Russia is a very beautiful country
p24
sV447140463028752385
p25
V'European Union prepares for trade war with Russia over Crimea' http://t.co/ETFI43txap via @guardian
p26
sV447157489574752256
p27
VUS #Europe #US_News Russia\u2019s Aggression to Dominate Obama Europe Trip: The post Russia\u2019s Aggression to Dominate... http://t.co/Ed1G1WDUwt
p28
sV447136899984261120
p29
VRT @Mikaa_Polarisk: #ExxonMobil/#Rosneft's #Arctic E&amp;P to be impacted by US exec order allows targeting of key sectors of #Russia economy:e\u2026
p30
s.